target datalayout = "e-m:e-p270:32:32-p271:32:32-p272:64:64-i64:64-i128:128-f80:128-n8:16:32:64-S128"
target triple = "x86_64-pc-linux-gnu"

%"struct.faiss::IndexHNSW" = type <{ %"struct.faiss::Index.base", [4 x i8], %"struct.faiss::HNSW", i8, [7 x i8], ptr, i8, i8, [6 x i8] }>
%"struct.faiss::Index.base" = type <{ ptr, i32, [4 x i8], i64, i8, i8, [2 x i8], i32, float }>
%"struct.faiss::HNSW" = type <{ %"class.std::vector", %"class.std::vector.0", %"class.std::vector.0", %"class.std::vector.5", %"class.std::vector.0", i32, [4 x i8], %"struct.faiss::RandomGenerator", i32, i32, i32, i8, i8, [2 x i8] }>
%"class.std::vector" = type { %"struct.std::_Vector_base" }
%"struct.std::_Vector_base" = type { %"struct.std::_Vector_base<double, std::allocator<double>>::_Vector_impl" }
%"struct.std::_Vector_base<double, std::allocator<double>>::_Vector_impl" = type { %"struct.std::_Vector_base<double, std::allocator<double>>::_Vector_impl_data" }
%"struct.std::_Vector_base<double, std::allocator<double>>::_Vector_impl_data" = type { ptr, ptr, ptr }
%"class.std::vector.5" = type { %"struct.std::_Vector_base.6" }
%"struct.std::_Vector_base.6" = type { %"struct.std::_Vector_base<unsigned long, std::allocator<unsigned long>>::_Vector_impl" }
%"struct.std::_Vector_base<unsigned long, std::allocator<unsigned long>>::_Vector_impl" = type { %"struct.std::_Vector_base<unsigned long, std::allocator<unsigned long>>::_Vector_impl_data" }
%"struct.std::_Vector_base<unsigned long, std::allocator<unsigned long>>::_Vector_impl_data" = type { ptr, ptr, ptr }
%"class.std::vector.0" = type { %"struct.std::_Vector_base.1" }
%"struct.std::_Vector_base.1" = type { %"struct.std::_Vector_base<int, std::allocator<int>>::_Vector_impl" }
%"struct.std::_Vector_base<int, std::allocator<int>>::_Vector_impl" = type { %"struct.std::_Vector_base<int, std::allocator<int>>::_Vector_impl_data" }
%"struct.std::_Vector_base<int, std::allocator<int>>::_Vector_impl_data" = type { ptr, ptr, ptr }
%"struct.faiss::RandomGenerator" = type { %"class.std::mersenne_twister_engine" }
%"class.std::mersenne_twister_engine" = type { [624 x i64], i64 }
%"struct.faiss::Index" = type <{ ptr, i32, [4 x i8], i64, i8, i8, [2 x i8], i32, float, [4 x i8] }>

; Function Attrs: mustprogress nounwind uwtable
define linkonce_odr void @_ZN5faiss5IndexC2ElNS_10MetricTypeE(ptr noundef nonnull align 8 dereferenceable(36) %0, i64 noundef %1, i32 noundef %2) unnamed_addr #0 comdat align 2 {
  %4 = alloca ptr, align 8
  %5 = alloca i64, align 8
  %6 = alloca i32, align 4
  store ptr %0, ptr %4, align 8, !tbaa !88
  store i64 %1, ptr %5, align 8, !tbaa !9
  store i32 %2, ptr %6, align 4, !tbaa !85
  %7 = load ptr, ptr %4, align 8
  store ptr getelementptr inbounds inrange(-16, 184) ({ [25 x ptr] }, ptr @_ZTVN5faiss5IndexE, i32 0, i32 0, i32 2), ptr %7, align 8, !tbaa !40
  %8 = getelementptr inbounds nuw %"struct.faiss::Index", ptr %7, i32 0, i32 1
  %9 = load i64, ptr %5, align 8, !tbaa !9
  %10 = trunc i64 %9 to i32
  store i32 %10, ptr %8, align 8, !tbaa !82
  %11 = getelementptr inbounds nuw %"struct.faiss::Index", ptr %7, i32 0, i32 3
  store i64 0, ptr %11, align 8, !tbaa !45
  %12 = getelementptr inbounds nuw %"struct.faiss::Index", ptr %7, i32 0, i32 4
  store i8 0, ptr %12, align 8, !tbaa !46
  %13 = getelementptr inbounds nuw %"struct.faiss::Index", ptr %7, i32 0, i32 5
  store i8 1, ptr %13, align 1, !tbaa !42
  %14 = getelementptr inbounds nuw %"struct.faiss::Index", ptr %7, i32 0, i32 7
  %15 = load i32, ptr %6, align 4, !tbaa !85
  store i32 %15, ptr %14, align 4, !tbaa !50
  %16 = getelementptr inbounds nuw %"struct.faiss::Index", ptr %7, i32 0, i32 8
  store float 0.000000e+00, ptr %16, align 8, !tbaa !89
  ret void
}

; Function Attrs: mustprogress uwtable
define void @_ZN5faiss9IndexHNSWC2EPNS_5IndexEi(ptr noundef nonnull align 8 dereferenceable(5202) %0, ptr noundef %1, i32 noundef %2) unnamed_addr #1 align 2 personality ptr @__gxx_personality_v0 {
  %4 = alloca ptr, align 8
  %5 = alloca ptr, align 8
  %6 = alloca i32, align 4
  %7 = alloca ptr, align 8
  %8 = alloca i32, align 4
  store ptr %0, ptr %4, align 8, !tbaa !4
  store ptr %1, ptr %5, align 8, !tbaa !88
  store i32 %2, ptr %6, align 4, !tbaa !39
  %9 = load ptr, ptr %4, align 8
  %10 = load ptr, ptr %5, align 8, !tbaa !88
  %11 = getelementptr inbounds nuw %"struct.faiss::Index", ptr %10, i32 0, i32 1
  %12 = load i32, ptr %11, align 8, !tbaa !82
  %13 = sext i32 %12 to i64
  %14 = load ptr, ptr %5, align 8, !tbaa !88
  %15 = getelementptr inbounds nuw %"struct.faiss::Index", ptr %14, i32 0, i32 7
  %16 = load i32, ptr %15, align 4, !tbaa !50
  call void @_ZN5faiss5IndexC2ElNS_10MetricTypeE(ptr noundef nonnull align 8 dereferenceable(36) %9, i64 noundef %13, i32 noundef %16)
  store ptr getelementptr inbounds inrange(-16, 184) ({ [25 x ptr] }, ptr @_ZTVN5faiss9IndexHNSWE, i32 0, i32 0, i32 2), ptr %9, align 8, !tbaa !40
  %17 = getelementptr inbounds nuw %"struct.faiss::IndexHNSW", ptr %9, i32 0, i32 2
  %18 = load i32, ptr %6, align 4, !tbaa !39
  invoke void @_ZN5faiss4HNSWC1Ei(ptr noundef nonnull align 8 dereferenceable(5142) %17, i32 noundef %18)
          to label %19 unwind label %25

19:                                               ; preds = %3
  %20 = getelementptr inbounds nuw %"struct.faiss::IndexHNSW", ptr %9, i32 0, i32 3
  store i8 0, ptr %20, align 8, !tbaa !77
  %21 = getelementptr inbounds nuw %"struct.faiss::IndexHNSW", ptr %9, i32 0, i32 5
  %22 = load ptr, ptr %5, align 8, !tbaa !88
  store ptr %22, ptr %21, align 8, !tbaa !13
  %23 = getelementptr inbounds nuw %"struct.faiss::IndexHNSW", ptr %9, i32 0, i32 6
  store i8 1, ptr %23, align 8, !tbaa !86
  %24 = getelementptr inbounds nuw %"struct.faiss::IndexHNSW", ptr %9, i32 0, i32 7
  store i8 0, ptr %24, align 1, !tbaa !87
  ret void

25:                                               ; preds = %3
  %26 = landingpad { ptr, i32 }
          cleanup
  %27 = extractvalue { ptr, i32 } %26, 0
  store ptr %27, ptr %7, align 8
  %28 = extractvalue { ptr, i32 } %26, 1
  store i32 %28, ptr %8, align 4
  call void @_ZN5faiss5IndexD2Ev(ptr noundef nonnull align 8 dereferenceable(36) %9) #6
  br label %29

29:                                               ; preds = %25
  %30 = load ptr, ptr %7, align 8
  %31 = load i32, ptr %8, align 4
  %32 = insertvalue { ptr, i32 } poison, ptr %30, 0
  %33 = insertvalue { ptr, i32 } %32, i32 %31, 1
  resume { ptr, i32 } %33
}

; Function Attrs: mustprogress uwtable
define void @_ZN5faiss11IndexHNSWPQC2EiiiiNS_10MetricTypeE(ptr noundef nonnull align 8 dereferenceable(5202) %0, i32 noundef %1, i32 noundef %2, i32 noundef %3, i32 noundef %4, i32 noundef %5) unnamed_addr #1 align 2 personality ptr @__gxx_personality_v0 {
  %7 = alloca ptr, align 8
  %8 = alloca i32, align 4
  %9 = alloca i32, align 4
  %10 = alloca i32, align 4
  %11 = alloca i32, align 4
  %12 = alloca i32, align 4
  %13 = alloca ptr, align 8
  %14 = alloca i32, align 4
  store ptr %0, ptr %7, align 8, !tbaa !61
  store i32 %1, ptr %8, align 4, !tbaa !39
  store i32 %2, ptr %9, align 4, !tbaa !39
  store i32 %3, ptr %10, align 4, !tbaa !39
  store i32 %4, ptr %11, align 4, !tbaa !39
  store i32 %5, ptr %12, align 4, !tbaa !85
  %15 = load ptr, ptr %7, align 8
  %16 = call noalias noundef nonnull ptr @_Znwm(i64 noundef 408) #28
  %17 = load i32, ptr %8, align 4, !tbaa !39
  %18 = load i32, ptr %9, align 4, !tbaa !39
  %19 = sext i32 %18 to i64
  %20 = load i32, ptr %11, align 4, !tbaa !39
  %21 = sext i32 %20 to i64
  %22 = load i32, ptr %12, align 4, !tbaa !85
  invoke void @_ZN5faiss7IndexPQC1EimmNS_10MetricTypeE(ptr noundef nonnull align 8 dereferenceable(404) %16, i32 noundef %17, i64 noundef %19, i64 noundef %21, i32 noundef %22)
          to label %23 unwind label %27

23:                                               ; preds = %6
  %24 = load i32, ptr %10, align 4, !tbaa !39
  call void @_ZN5faiss9IndexHNSWC2EPNS_5IndexEi(ptr noundef nonnull align 8 dereferenceable(5202) %15, ptr noundef %16, i32 noundef %24)
  store ptr getelementptr inbounds inrange(-16, 184) ({ [25 x ptr] }, ptr @_ZTVN5faiss11IndexHNSWPQE, i32 0, i32 0, i32 2), ptr %15, align 8, !tbaa !40
  %25 = getelementptr inbounds nuw %"struct.faiss::IndexHNSW", ptr %15, i32 0, i32 3
  store i8 1, ptr %25, align 8, !tbaa !77
  %26 = getelementptr inbounds nuw %"struct.faiss::Index", ptr %15, i32 0, i32 5
  store i8 0, ptr %26, align 1, !tbaa !42
  ret void

27:                                               ; preds = %6
  %28 = landingpad { ptr, i32 }
          cleanup
  %29 = extractvalue { ptr, i32 } %28, 0
  store ptr %29, ptr %13, align 8
  %30 = extractvalue { ptr, i32 } %28, 1
  store i32 %30, ptr %14, align 4
  call void @_ZdlPvm(ptr noundef %16, i64 noundef 408) #26
  br label %31

31:                                               ; preds = %27
  %32 = load ptr, ptr %13, align 8
  %33 = load i32, ptr %14, align 4
  %34 = insertvalue { ptr, i32 } poison, ptr %32, 0
  %35 = insertvalue { ptr, i32 } %34, i32 %33, 1
  resume { ptr, i32 } %35
}