; Function Attrs: mustprogress uwtable
define void @_ZN5faiss11IndexHNSWPQC2EiiiiNS_10MetricTypeE(ptr noundef nonnull align 8 dereferenceable(5202) %0, i32 noundef %1, i32 noundef %2, i32 noundef %3, i32 noundef %4, i32 noundef %5) unnamed_addr #1 align 2 personality ptr @__gxx_personality_v0 {
  %7 = tail call noalias noundef nonnull dereferenceable(408) ptr @_Znwm(i64 noundef 408) #31
  %8 = sext i32 %2 to i64
  %9 = sext i32 %4 to i64
  invoke void @_ZN5faiss7IndexPQC1EimmNS_10MetricTypeE(ptr noundef nonnull align 8 dereferenceable(404) %7, i32 noundef %1, i64 noundef %8, i64 noundef %9, i32 noundef %5)
          to label %10 unwind label %28

10:                                               ; preds = %6
  %11 = getelementptr inbounds nuw i8, ptr %7, i64 8
  %12 = load i32, ptr %11, align 8, !tbaa !54
  %13 = getelementptr inbounds nuw i8, ptr %7, i64 28
  %14 = load i32, ptr %13, align 4, !tbaa !98
  %15 = getelementptr inbounds nuw i8, ptr %0, i64 8
  store i32 %12, ptr %15, align 8, !tbaa !54
  %16 = getelementptr inbounds nuw i8, ptr %0, i64 16
  store i64 0, ptr %16, align 8, !tbaa !46
  %17 = getelementptr inbounds nuw i8, ptr %0, i64 24
  store i8 0, ptr %17, align 8, !tbaa !47
  %18 = getelementptr inbounds nuw i8, ptr %0, i64 25
  store i8 1, ptr %18, align 1, !tbaa !43
  %19 = getelementptr inbounds nuw i8, ptr %0, i64 28
  store i32 %14, ptr %19, align 4, !tbaa !98
  %20 = getelementptr inbounds nuw i8, ptr %0, i64 32
  store float 0.000000e+00, ptr %20, align 8, !tbaa !142
  store ptr getelementptr inbounds nuw inrange(-16, 184) (i8, ptr @_ZTVN5faiss9IndexHNSWE, i64 16), ptr %0, align 8, !tbaa !41
  %21 = getelementptr inbounds nuw i8, ptr %0, i64 40
  invoke void @_ZN5faiss4HNSWC1Ei(ptr noundef nonnull align 8 dereferenceable(5142) %21, i32 noundef %3)
          to label %_ZN5faiss9IndexHNSWC2EPNS_5IndexEi.exit unwind label %22

common.resume:                                    ; preds = %28, %22
  %common.resume.op = phi { ptr, i32 } [ %23, %22 ], [ %29, %28 ]
  resume { ptr, i32 } %common.resume.op

22:                                               ; preds = %10
  %23 = landingpad { ptr, i32 }
          cleanup
  tail call void @_ZN5faiss5IndexD2Ev(ptr noundef nonnull align 8 dereferenceable(5202) %0) #13
  br label %common.resume

_ZN5faiss9IndexHNSWC2EPNS_5IndexEi.exit:          ; preds = %10
  %24 = getelementptr inbounds nuw i8, ptr %0, i64 5184
  %25 = getelementptr inbounds nuw i8, ptr %0, i64 5192
  store ptr %7, ptr %25, align 8, !tbaa !4
  %26 = getelementptr inbounds nuw i8, ptr %0, i64 5200
  store i8 1, ptr %26, align 8, !tbaa !70
  %27 = getelementptr inbounds nuw i8, ptr %0, i64 5201
  store i8 0, ptr %27, align 1, !tbaa !143
  store ptr getelementptr inbounds nuw inrange(-16, 184) (i8, ptr @_ZTVN5faiss11IndexHNSWPQE, i64 16), ptr %0, align 8, !tbaa !41
  store i8 1, ptr %24, align 8, !tbaa !124
  store i8 0, ptr %18, align 1, !tbaa !43
  ret void

28:                                               ; preds = %6
  %29 = landingpad { ptr, i32 }
          cleanup
  tail call void @_ZdlPvm(ptr noundef nonnull %7, i64 noundef 408) #29
  br label %common.resume
}